target datalayout = "e-m:e-p270:32:32-p271:32:32-p272:64:64-i64:64-i128:128-f80:128-n8:16:32:64-S128"
target triple = "x86_64-pc-linux-gnu"

%"class.nix::Settings" = type { %"class.nix::Config", %"class.std::__cxx11::basic_string", %"class.std::__cxx11::basic_string", %"class.std::__cxx11::basic_string", %"class.std::__cxx11::basic_string", %"class.std::__cxx11::basic_string", %"class.std::__cxx11::basic_string", %"class.std::vector.71", %"class.std::__cxx11::basic_string", %"class.std::__cxx11::basic_string", %"class.std::__cxx11::basic_string", %"class.nix::Setting", %"class.nix::Setting.84", %"class.nix::Setting.84", %"class.nix::Setting.84", i8, [7 x i8], %"class.nix::Setting.88", %"struct.nix::MaxBuildJobsSetting", %"class.nix::Setting.94", %"class.nix::Setting.94", i8, [7 x i8], %"class.nix::Setting", %"class.nix::Setting.96", %"class.nix::Setting.96", %"class.nix::Setting.100", %"class.nix::Setting", %"class.nix::Setting.84", %"class.nix::Setting.84", %"class.nix::Setting.96", %"class.nix::Setting.84", %"class.nix::Setting.84", %"class.nix::Setting.84", %"class.nix::Setting.84", %"class.nix::Setting", %"class.nix::Setting.84", %"class.nix::Setting.94", %"class.nix::Setting.94", %"class.nix::Setting.84", %"class.nix::Setting.84", %"class.nix::Setting.84", %"class.nix::Setting.84", %"class.nix::Setting.88", %"class.nix::Setting.94", %"class.nix::Setting.84", %"class.nix::Setting.84", %"class.nix::Setting.84", %"class.nix::Setting.84", %"class.nix::Setting.104", %"class.nix::Setting.108", %"class.nix::Setting.84", %"class.nix::Setting.84", %"class.nix::Setting", %"class.nix::Setting", %"class.nix::Setting.108", %"class.nix::Setting.84", %"class.nix::OptionalPathSetting", %"class.nix::Setting.100", %"class.nix::Setting.100", %"class.nix::Setting.94", %"class.nix::Setting.84", %"class.nix::Setting.108", %"class.nix::Setting.108", %"class.nix::Setting.100", %"class.nix::Setting.108", %"class.nix::Setting.94", %"class.nix::Setting.94", %"class.nix::Setting.84", %"class.nix::Setting", %"class.nix::Setting", %"class.nix::Setting.94", %"class.nix::Setting", %"class.nix::Setting", %"class.nix::Setting.84", %"class.nix::Setting.84", %"class.nix::Setting.108", %"class.nix::Setting.100", %"class.nix::Setting.88", %"class.nix::Setting.88", %"class.nix::Setting.88", %"struct.nix::PluginFilesSetting", %"class.nix::Setting.88", %"class.nix::Setting.84", %"class.nix::Setting.84", %"class.nix::Setting.114", %"class.nix::Setting" }
%"class.nix::Config" = type { %"class.nix::AbstractConfig", %"class.std::map.66" }
%"class.nix::AbstractConfig" = type { ptr, %"class.std::map.15" }
%"class.std::map.15" = type { %"class.std::_Rb_tree.16" }
%"class.std::_Rb_tree.16" = type { %"struct.std::_Rb_tree<std::__cxx11::basic_string<char>, std::pair<const std::__cxx11::basic_string<char>, std::__cxx11::basic_string<char>>, std::_Select1st<std::pair<const std::__cxx11::basic_string<char>, std::__cxx11::basic_string<char>>>, std::less<std::__cxx11::basic_string<char>>>::_Rb_tree_impl" }
%"struct.std::_Rb_tree<std::__cxx11::basic_string<char>, std::pair<const std::__cxx11::basic_string<char>, std::__cxx11::basic_string<char>>, std::_Select1st<std::pair<const std::__cxx11::basic_string<char>, std::__cxx11::basic_string<char>>>, std::less<std::__cxx11::basic_string<char>>>::_Rb_tree_impl" = type { %"struct.std::_Rb_tree_key_compare", %"struct.std::_Rb_tree_header" }
%"struct.std::_Rb_tree_key_compare" = type { %"struct.std::less" }
%"struct.std::less" = type { i8 }
%"struct.std::_Rb_tree_header" = type { %"struct.std::_Rb_tree_node_base", i64 }
%"struct.std::_Rb_tree_node_base" = type { i32, ptr, ptr, ptr }
%"class.std::map.66" = type { %"class.std::_Rb_tree.67" }
%"class.std::_Rb_tree.67" = type { %"struct.std::_Rb_tree<std::__cxx11::basic_string<char>, std::pair<const std::__cxx11::basic_string<char>, nix::Config::SettingData>, std::_Select1st<std::pair<const std::__cxx11::basic_string<char>, nix::Config::SettingData>>, std::less<std::__cxx11::basic_string<char>>>::_Rb_tree_impl" }
%"struct.std::_Rb_tree<std::__cxx11::basic_string<char>, std::pair<const std::__cxx11::basic_string<char>, nix::Config::SettingData>, std::_Select1st<std::pair<const std::__cxx11::basic_string<char>, nix::Config::SettingData>>, std::less<std::__cxx11::basic_string<char>>>::_Rb_tree_impl" = type { %"struct.std::_Rb_tree_key_compare", %"struct.std::_Rb_tree_header" }
%"class.std::vector.71" = type { %"struct.std::_Vector_base.72" }
%"struct.std::_Vector_base.72" = type { %"struct.std::_Vector_base<std::__cxx11::basic_string<char>, std::allocator<std::__cxx11::basic_string<char>>>::_Vector_impl" }
%"struct.std::_Vector_base<std::__cxx11::basic_string<char>, std::allocator<std::__cxx11::basic_string<char>>>::_Vector_impl" = type { %"struct.std::_Vector_base<std::__cxx11::basic_string<char>, std::allocator<std::__cxx11::basic_string<char>>>::_Vector_impl_data" }
%"struct.std::_Vector_base<std::__cxx11::basic_string<char>, std::allocator<std::__cxx11::basic_string<char>>>::_Vector_impl_data" = type { ptr, ptr, ptr }
%"class.std::__cxx11::basic_string" = type { %"struct.std::__cxx11::basic_string<char>::_Alloc_hider", i64, %union.anon }
%"struct.std::__cxx11::basic_string<char>::_Alloc_hider" = type { ptr }
%union.anon = type { i64, [8 x i8] }
%"struct.nix::MaxBuildJobsSetting" = type { %"class.nix::BaseSetting.base.93", [7 x i8] }
%"class.nix::BaseSetting.base.93" = type <{ %"class.nix::AbstractSetting", i32, i32, i8 }>
%"class.nix::AbstractSetting" = type { ptr, %"class.std::__cxx11::basic_string", %"class.std::__cxx11::basic_string", %"class.std::set.53", i32, i8, [3 x i8], %"class.std::optional.76" }
%"class.std::set.53" = type { %"class.std::_Rb_tree.54" }
%"class.std::_Rb_tree.54" = type { %"struct.std::_Rb_tree<std::__cxx11::basic_string<char>, std::__cxx11::basic_string<char>, std::_Identity<std::__cxx11::basic_string<char>>, std::less<std::__cxx11::basic_string<char>>>::_Rb_tree_impl" }
%"struct.std::_Rb_tree<std::__cxx11::basic_string<char>, std::__cxx11::basic_string<char>, std::_Identity<std::__cxx11::basic_string<char>>, std::less<std::__cxx11::basic_string<char>>>::_Rb_tree_impl" = type { %"struct.std::_Rb_tree_key_compare", %"struct.std::_Rb_tree_header" }
%"class.std::optional.76" = type { %"struct.std::_Optional_base.77" }
%"struct.std::_Optional_base.77" = type { %"struct.std::_Optional_payload.79" }
%"struct.std::_Optional_payload.79" = type { %"struct.std::_Optional_payload_base.base.81", [3 x i8] }
%"struct.std::_Optional_payload_base.base.81" = type <{ %"union.std::_Optional_payload_base<nix::ExperimentalFeature>::_Storage", i8 }>
%"union.std::_Optional_payload_base<nix::ExperimentalFeature>::_Storage" = type { i32 }
%"class.nix::Setting.96" = type { %"class.nix::BaseSetting.base.98", [7 x i8] }
%"class.nix::BaseSetting.base.98" = type <{ %"class.nix::AbstractSetting", i64, i64, i8 }>
%"class.nix::Setting.104" = type { %"class.nix::BaseSetting.base.106", [7 x i8] }
%"class.nix::BaseSetting.base.106" = type <{ %"class.nix::AbstractSetting", i32, i32, i8 }>
%"class.nix::OptionalPathSetting" = type { %"class.nix::BaseSetting.base.113", [7 x i8] }
%"class.nix::BaseSetting.base.113" = type <{ %"class.nix::AbstractSetting", %"class.std::optional", %"class.std::optional", i8 }>
%"class.std::optional" = type { %"struct.std::_Optional_base" }
%"struct.std::_Optional_base" = type { %"struct.std::_Optional_payload" }
%"struct.std::_Optional_payload" = type { %"struct.std::_Optional_payload.base", [7 x i8] }
%"struct.std::_Optional_payload.base" = type { %"struct.std::_Optional_payload_base.base" }
%"struct.std::_Optional_payload_base.base" = type <{ %"union.std::_Optional_payload_base<std::__cxx11::basic_string<char>>::_Storage", i8 }>
%"union.std::_Optional_payload_base<std::__cxx11::basic_string<char>>::_Storage" = type { %"class.std::__cxx11::basic_string" }
%"class.nix::Setting.94" = type { %"class.nix::BaseSetting.base.93", [7 x i8] }
%"class.nix::Setting.108" = type { %"class.nix::BaseSetting.base.110", [7 x i8] }
%"class.nix::BaseSetting.base.110" = type <{ %"class.nix::AbstractSetting", %"class.std::set.53", %"class.std::set.53", i8 }>
%"class.nix::Setting.100" = type { %"class.nix::BaseSetting.base.102", [7 x i8] }
%"class.nix::BaseSetting.base.102" = type <{ %"class.nix::AbstractSetting", %"class.std::__cxx11::list", %"class.std::__cxx11::list", i8 }>
%"class.std::__cxx11::list" = type { %"class.std::__cxx11::_List_base" }
%"class.std::__cxx11::_List_base" = type { %"struct.std::__cxx11::_List_base<std::__cxx11::basic_string<char>, std::allocator<std::__cxx11::basic_string<char>>>::_List_impl" }
%"struct.std::__cxx11::_List_base<std::__cxx11::basic_string<char>, std::allocator<std::__cxx11::basic_string<char>>>::_List_impl" = type { %"struct.std::__detail::_List_node_header" }
%"struct.std::__detail::_List_node_header" = type { %"struct.std::__detail::_List_node_base", i64 }
%"struct.std::__detail::_List_node_base" = type { ptr, ptr }
%"struct.nix::PluginFilesSetting" = type { %"class.nix::BaseSetting.base.102", i8, [6 x i8] }
%"class.nix::Setting.88" = type { %"class.nix::BaseSetting.base.90", [7 x i8] }
%"class.nix::BaseSetting.base.90" = type <{ %"class.nix::AbstractSetting", i64, i64, i8 }>
%"class.nix::Setting.84" = type { %"class.nix::BaseSetting.base.86", [5 x i8] }
%"class.nix::BaseSetting.base.86" = type <{ %"class.nix::AbstractSetting", i8, i8, i8 }>
%"class.nix::Setting.114" = type { %"class.nix::BaseSetting.base.116", [7 x i8] }
%"class.nix::BaseSetting.base.116" = type <{ %"class.nix::AbstractSetting", %"class.std::map.15", %"class.std::map.15", i8 }>
%"class.nix::Setting" = type { %"class.nix::BaseSetting.base", [7 x i8] }
%"class.nix::BaseSetting.base" = type <{ %"class.nix::AbstractSetting", %"class.std::__cxx11::basic_string", %"class.std::__cxx11::basic_string", i8 }>
%"class.std::allocator" = type { i8 }
%"class.nix::BaseSetting.85" = type <{ %"class.nix::AbstractSetting", i8, i8, i8, [5 x i8] }>

@_ZN3nix8settingsE = external global %"class.nix::Settings", align 8
@.str.13 = private unnamed_addr constant [17 x i8] c"allowSubstitutes\00", align 1

; Function Attrs: mustprogress nounwind uwtable
define linkonce_odr noundef nonnull align 1 dereferenceable(1) ptr @_ZN3nix11BaseSettingIbEcvRbEv(ptr noundef nonnull align 8 dereferenceable(139) %0) #2 comdat align 2 {
  %2 = alloca ptr, align 8
  store ptr %0, ptr %2, align 8
  %3 = load ptr, ptr %2, align 8
  %4 = getelementptr inbounds %"class.nix::BaseSetting.85", ptr %3, i32 0, i32 1
  ret ptr %4
}

; Function Attrs: mustprogress uwtable
define noundef zeroext i1 @_ZNK3nix16ParsedDerivation18substitutesAllowedEv(ptr noundef nonnull align 8 dereferenceable(48) %0) #5 align 2 personality ptr @__gxx_personality_v0 {
  %2 = alloca i1, align 1
  %3 = alloca ptr, align 8
  %4 = alloca %"class.std::__cxx11::basic_string", align 8
  %5 = alloca %"class.std::allocator", align 1
  %6 = alloca i1, align 1
  %7 = alloca ptr, align 8
  %8 = alloca i32, align 4
  %9 = alloca i1, align 1
  store ptr %0, ptr %3, align 8
  %10 = load ptr, ptr %3, align 8
  %11 = call noundef nonnull align 1 dereferenceable(1) ptr @_ZN3nix11BaseSettingIbEcvRbEv(ptr noundef nonnull align 8 dereferenceable(139) getelementptr inbounds (%"class.nix::Settings", ptr @_ZN3nix8settingsE, i32 0, i32 28))
  %12 = load i8, ptr %11, align 1
  %13 = trunc i8 %12 to i1
  store i1 false, ptr %6, align 1
  store i1 false, ptr %9, align 1
  br i1 %13, label %14, label %15

14:                                               ; preds = %1
  br label %19

15:                                               ; preds = %1
  call void @_ZNSaIcEC1Ev(ptr noundef nonnull align 1 dereferenceable(1) %5) #1
  store i1 true, ptr %6, align 1
  invoke void @_ZNSt7__cxx1112basic_stringIcSt11char_traitsIcESaIcEEC2IS3_EEPKcRKS3_(ptr noundef nonnull align 8 dereferenceable(32) %4, ptr noundef @.str.13, ptr noundef nonnull align 1 dereferenceable(1) %5)
          to label %16 unwind label %28

16:                                               ; preds = %15
  store i1 true, ptr %9, align 1
  %17 = invoke noundef zeroext i1 @_ZNK3nix16ParsedDerivation11getBoolAttrERKNSt7__cxx1112basic_stringIcSt11char_traitsIcESaIcEEEb(ptr noundef nonnull align 8 dereferenceable(48) %10, ptr noundef nonnull align 8 dereferenceable(32) %4, i1 noundef zeroext true)
          to label %18 unwind label %32

18:                                               ; preds = %16
  br label %19

19:                                               ; preds = %18, %14
  %20 = phi i1 [ true, %14 ], [ %17, %18 ]
  store i1 %20, ptr %2, align 1
  %21 = load i1, ptr %9, align 1
  br i1 %21, label %22, label %23

22:                                               ; preds = %19
  call void @_ZNSt7__cxx1112basic_stringIcSt11char_traitsIcESaIcEED2Ev(ptr noundef nonnull align 8 dereferenceable(32) %4) #1
  br label %23

23:                                               ; preds = %22, %19
  %24 = load i1, ptr %6, align 1
  br i1 %24, label %25, label %26

25:                                               ; preds = %23
  call void @_ZNSaIcED1Ev(ptr noundef nonnull align 1 dereferenceable(1) %5) #1
  br label %26

26:                                               ; preds = %25, %23
  %27 = load i1, ptr %2, align 1
  ret i1 %27

28:                                               ; preds = %15
  %29 = landingpad { ptr, i32 }
          cleanup
  %30 = extractvalue { ptr, i32 } %29, 0
  store ptr %30, ptr %7, align 8
  %31 = extractvalue { ptr, i32 } %29, 1
  store i32 %31, ptr %8, align 4
  br label %39

32:                                               ; preds = %16
  %33 = landingpad { ptr, i32 }
          cleanup
  %34 = extractvalue { ptr, i32 } %33, 0
  store ptr %34, ptr %7, align 8
  %35 = extractvalue { ptr, i32 } %33, 1
  store i32 %35, ptr %8, align 4
  %36 = load i1, ptr %9, align 1
  br i1 %36, label %37, label %38

37:                                               ; preds = %32
  call void @_ZNSt7__cxx1112basic_stringIcSt11char_traitsIcESaIcEED2Ev(ptr noundef nonnull align 8 dereferenceable(32) %4) #1
  br label %38

38:                                               ; preds = %37, %32
  br label %39

39:                                               ; preds = %38, %28
  %40 = load i1, ptr %6, align 1
  br i1 %40, label %41, label %42

41:                                               ; preds = %39
  call void @_ZNSaIcED1Ev(ptr noundef nonnull align 1 dereferenceable(1) %5) #1
  br label %42

42:                                               ; preds = %41, %39
  br label %43

43:                                               ; preds = %42
  %44 = load ptr, ptr %7, align 8
  %45 = load i32, ptr %8, align 4
  %46 = insertvalue { ptr, i32 } poison, ptr %44, 0
  %47 = insertvalue { ptr, i32 } %46, i32 %45, 1
  resume { ptr, i32 } %47
}